; Function Attrs: mustprogress uwtable
define void @_ZN5Ipopt24LimMemQuasiNewtonUpdater7RecalcYEdRKNS_6VectorERNS_17MultiVectorMatrixES5_RNS_8SmartPtrIS4_EE(ptr nocapture nonnull readnone align 8 %0, double noundef %1, ptr nocapture nonnull readnone align 8 %2, ptr noundef nonnull align 8 dereferenceable(128) %3, ptr noundef nonnull align 8 dereferenceable(128) %4, ptr nocapture noundef nonnull align 8 dereferenceable(8) %5) local_unnamed_addr #5 align 2 personality ptr @__gxx_personality_v0 {
  %7 = getelementptr inbounds i8, ptr %4, i64 72
  %8 = load ptr, ptr %7, align 8, !noalias !218
  %.not.i.i.i = icmp eq ptr %8, null
  br i1 %.not.i.i.i, label %_ZNK5Ipopt17MultiVectorMatrix27MultiVectorMatrixOwnerSpaceEv.exit, label %9

9:                                                ; preds = %6
  %10 = getelementptr inbounds i8, ptr %8, i64 8
  %11 = load i32, ptr %10, align 8, !noalias !218
  %12 = add nsw i32 %11, 1
  store i32 %12, ptr %10, align 8, !noalias !218
  br label %_ZNK5Ipopt17MultiVectorMatrix27MultiVectorMatrixOwnerSpaceEv.exit

_ZNK5Ipopt17MultiVectorMatrix27MultiVectorMatrixOwnerSpaceEv.exit: ; preds = %6, %9
  %13 = invoke noalias noundef nonnull dereferenceable(128) ptr @_Znwm(i64 noundef 128) #21
          to label %.noexc unwind label %45

.noexc:                                           ; preds = %_ZNK5Ipopt17MultiVectorMatrix27MultiVectorMatrixOwnerSpaceEv.exit
  invoke void @_ZN5Ipopt17MultiVectorMatrixC1EPKNS_22MultiVectorMatrixSpaceE(ptr noundef nonnull align 8 dereferenceable(128) %13, ptr noundef nonnull %8)
          to label %_ZNK5Ipopt22MultiVectorMatrixSpace24MakeNewMultiVectorMatrixEv.exit unwind label %14

14:                                               ; preds = %.noexc
  %15 = landingpad { ptr, i32 }
          cleanup
  tail call void @_ZdlPv(ptr noundef nonnull %13) #22
  br label %.body

_ZNK5Ipopt22MultiVectorMatrixSpace24MakeNewMultiVectorMatrixEv.exit: ; preds = %.noexc
  %16 = getelementptr inbounds i8, ptr %13, i64 8
  %17 = load i32, ptr %16, align 8
  %18 = add nsw i32 %17, 1
  store i32 %18, ptr %16, align 8
  %19 = load ptr, ptr %5, align 8
  %.not.i.i.i8 = icmp eq ptr %19, null
  br i1 %.not.i.i.i8, label %32, label %20

20:                                               ; preds = %_ZNK5Ipopt22MultiVectorMatrixSpace24MakeNewMultiVectorMatrixEv.exit
  %21 = getelementptr inbounds i8, ptr %19, i64 8
  %22 = load i32, ptr %21, align 8
  %23 = add nsw i32 %22, -1
  store i32 %23, ptr %21, align 8
  %24 = load ptr, ptr %5, align 8
  %25 = getelementptr inbounds i8, ptr %24, i64 8
  %26 = load i32, ptr %25, align 8
  %27 = icmp eq i32 %26, 0
  br i1 %27, label %28, label %32

28:                                               ; preds = %20
  %29 = load ptr, ptr %24, align 8
  %30 = getelementptr inbounds i8, ptr %29, i64 8
  %31 = load ptr, ptr %30, align 8
  tail call void %31(ptr noundef nonnull align 8 dereferenceable(128) %24) #19
  br label %32

32:                                               ; preds = %28, %20, %_ZNK5Ipopt22MultiVectorMatrixSpace24MakeNewMultiVectorMatrixEv.exit
  store ptr %13, ptr %5, align 8
  invoke void @_ZN5Ipopt17MultiVectorMatrix23AddOneMultiVectorMatrixEdRKS0_d(ptr noundef nonnull align 8 dereferenceable(128) %13, double noundef %1, ptr noundef nonnull align 8 dereferenceable(128) %3, double noundef 0.000000e+00)
          to label %33 unwind label %45

33:                                               ; preds = %32
  %34 = load ptr, ptr %5, align 8
  invoke void @_ZN5Ipopt17MultiVectorMatrix23AddOneMultiVectorMatrixEdRKS0_d(ptr noundef nonnull align 8 dereferenceable(128) %34, double noundef 1.000000e+00, ptr noundef nonnull align 8 dereferenceable(128) %4, double noundef 1.000000e+00)
          to label %35 unwind label %45

35:                                               ; preds = %33
  br i1 %.not.i.i.i, label %_ZN5Ipopt8SmartPtrIKNS_22MultiVectorMatrixSpaceEED2Ev.exit, label %36

36:                                               ; preds = %35
  %37 = getelementptr inbounds i8, ptr %8, i64 8
  %38 = load i32, ptr %37, align 8
  %39 = add nsw i32 %38, -1
  store i32 %39, ptr %37, align 8
  %40 = icmp eq i32 %39, 0
  br i1 %40, label %41, label %_ZN5Ipopt8SmartPtrIKNS_22MultiVectorMatrixSpaceEED2Ev.exit

41:                                               ; preds = %36
  %42 = load ptr, ptr %8, align 8
  %43 = getelementptr inbounds i8, ptr %42, i64 8
  %44 = load ptr, ptr %43, align 8
  tail call void %44(ptr noundef nonnull align 8 dereferenceable(32) %8) #19
  br label %_ZN5Ipopt8SmartPtrIKNS_22MultiVectorMatrixSpaceEED2Ev.exit

_ZN5Ipopt8SmartPtrIKNS_22MultiVectorMatrixSpaceEED2Ev.exit: ; preds = %35, %36, %41
  ret void

45:                                               ; preds = %_ZNK5Ipopt17MultiVectorMatrix27MultiVectorMatrixOwnerSpaceEv.exit, %33, %32
  %46 = landingpad { ptr, i32 }
          cleanup
  br label %.body

.body:                                            ; preds = %14, %45
  %eh.lpad-body = phi { ptr, i32 } [ %46, %45 ], [ %15, %14 ]
  br i1 %.not.i.i.i, label %_ZN5Ipopt8SmartPtrIKNS_22MultiVectorMatrixSpaceEED2Ev.exit10, label %47

47:                                               ; preds = %.body
  %48 = getelementptr inbounds i8, ptr %8, i64 8
  %49 = load i32, ptr %48, align 8
  %50 = add nsw i32 %49, -1
  store i32 %50, ptr %48, align 8
  %51 = icmp eq i32 %50, 0
  br i1 %51, label %52, label %_ZN5Ipopt8SmartPtrIKNS_22MultiVectorMatrixSpaceEED2Ev.exit10

52:                                               ; preds = %47
  %53 = load ptr, ptr %8, align 8
  %54 = getelementptr inbounds i8, ptr %53, i64 8
  %55 = load ptr, ptr %54, align 8
  tail call void %55(ptr noundef nonnull align 8 dereferenceable(32) %8) #19
  br label %_ZN5Ipopt8SmartPtrIKNS_22MultiVectorMatrixSpaceEED2Ev.exit10

_ZN5Ipopt8SmartPtrIKNS_22MultiVectorMatrixSpaceEED2Ev.exit10: ; preds = %.body, %47, %52
  resume { ptr, i32 } %eh.lpad-body
}